target datalayout = "e-m:e-p270:32:32-p271:32:32-p272:64:64-i64:64-i128:128-f80:128-n8:16:32:64-S128"
target triple = "x86_64-pc-linux-gnu"

%struct.winsize = type { i16, i16, i16, i16 }
%struct.srun_job = type { %struct.slurm_step_id_msg, i32, i32, ptr, i32, i32, i32, i32, ptr, ptr, ptr, ptr, i32, i32, i32, i16, i16, i16, i16, i32, %union.pthread_mutex_t, %union.pthread_cond_t, i32, ptr, ptr, ptr, ptr, ptr, ptr, i32, i16, i16, i16, ptr, ptr, ptr, ptr, i32, ptr, i32, ptr }
%struct.slurm_step_id_msg = type { i64, i32, i32, i32 }
%union.pthread_mutex_t = type { %struct.__pthread_mutex_s }
%struct.__pthread_mutex_s = type { i32, i32, i32, i32, i32, i16, i16, %struct.__pthread_internal_list }
%struct.__pthread_internal_list = type { ptr, ptr }
%union.pthread_cond_t = type { %struct.__pthread_cond_s }
%struct.__pthread_cond_s = type { %union.__atomic_wide_counter, %union.__atomic_wide_counter, [2 x i32], [2 x i32], i32, i32, [2 x i32] }
%union.__atomic_wide_counter = type { i64 }
%struct.sockaddr_storage = type { i16, [118 x i8], i64 }
%struct.pty_winsz = type { i16, i16 }

@.str = private unnamed_addr constant [22 x i8] c"ioctl(TIOCGWINSZ): %m\00", align 1
@.str.1 = private unnamed_addr constant [14 x i8] c"winsize %u:%u\00", align 1
@pty_sigarray = internal global [2 x i32] [i32 28, i32 0], align 4
@.str.11 = private unnamed_addr constant [24 x i8] c"pty: accept failure: %m\00", align 1
@.str.12 = private unnamed_addr constant [21 x i8] c"waiting for SIGWINCH\00", align 1
@.str.13 = private unnamed_addr constant [18 x i8] c"%s: poll error %m\00", align 1
@__func__._pty_thread = private unnamed_addr constant [12 x i8] c"_pty_thread\00", align 1
@winch = internal global i32 0, align 4
@.str.14 = private unnamed_addr constant [45 x i8] c"pty: no file to write window size changes to\00", align 1
@.str.15 = private unnamed_addr constant [47 x i8] c"pty: window size change notification error: %m\00", align 1

; Function Attrs: inlinehint nounwind uwtable
define internal zeroext i16 @__bswap_16(i16 noundef zeroext %0) #6 {
  %2 = alloca i16, align 2
  store i16 %0, ptr %2, align 2
  %3 = load i16, ptr %2, align 2
  %4 = zext i16 %3 to i32
  %5 = ashr i32 %4, 8
  %6 = and i32 %5, 255
  %7 = load i16, ptr %2, align 2
  %8 = zext i16 %7 to i32
  %9 = and i32 %8, 255
  %10 = shl i32 %9, 8
  %11 = or i32 %6, %10
  %12 = trunc i32 %11 to i16
  ret i16 %12
}

; Function Attrs: nounwind uwtable
define internal void @_notify_winsize_change(i32 noundef %0, ptr noundef %1) #0 {
  %3 = alloca i32, align 4
  %4 = alloca ptr, align 8
  %5 = alloca %struct.pty_winsz, align 2
  %6 = alloca i32, align 4
  %7 = alloca [4 x i8], align 1
  %8 = alloca i32, align 4
  store i32 %0, ptr %3, align 4
  store ptr %1, ptr %4, align 8
  call void @llvm.lifetime.start.p0(i64 4, ptr %5) #8
  call void @llvm.lifetime.start.p0(i64 4, ptr %6) #8
  call void @llvm.lifetime.start.p0(i64 4, ptr %7) #8
  %9 = load i32, ptr %3, align 4
  %10 = icmp slt i32 %9, 0
  br i1 %10, label %11, label %13

11:                                               ; preds = %2
  %12 = call i32 (ptr, ...) @error(ptr noundef @.str.14)
  store i32 1, ptr %8, align 4
  br label %39

13:                                               ; preds = %2
  %14 = load ptr, ptr %4, align 8
  %15 = getelementptr inbounds nuw %struct.srun_job, ptr %14, i32 0, i32 31
  %16 = load i16, ptr %15, align 2
  %17 = call zeroext i16 @__bswap_16(i16 noundef zeroext %16)
  %18 = getelementptr inbounds nuw %struct.pty_winsz, ptr %5, i32 0, i32 0
  store i16 %17, ptr %18, align 2
  %19 = load ptr, ptr %4, align 8
  %20 = getelementptr inbounds nuw %struct.srun_job, ptr %19, i32 0, i32 32
  %21 = load i16, ptr %20, align 8
  %22 = call zeroext i16 @__bswap_16(i16 noundef zeroext %21)
  %23 = getelementptr inbounds nuw %struct.pty_winsz, ptr %5, i32 0, i32 1
  store i16 %22, ptr %23, align 2
  %24 = getelementptr inbounds [4 x i8], ptr %7, i64 0, i64 0
  %25 = getelementptr inbounds nuw %struct.pty_winsz, ptr %5, i32 0, i32 0
  call void @llvm.memcpy.p0.p0.i64(ptr align 1 %24, ptr align 2 %25, i64 2, i1 false)
  %26 = getelementptr inbounds [4 x i8], ptr %7, i64 0, i64 0
  %27 = getelementptr inbounds i8, ptr %26, i64 2
  %28 = getelementptr inbounds nuw %struct.pty_winsz, ptr %5, i32 0, i32 1
  call void @llvm.memcpy.p0.p0.i64(ptr align 1 %27, ptr align 2 %28, i64 2, i1 false)
  %29 = load i32, ptr %3, align 4
  %30 = getelementptr inbounds [4 x i8], ptr %7, i64 0, i64 0
  %31 = call i64 @slurm_write_stream(i32 noundef %29, ptr noundef %30, i64 noundef 4)
  %32 = trunc i64 %31 to i32
  store i32 %32, ptr %6, align 4
  %33 = load i32, ptr %6, align 4
  %34 = sext i32 %33 to i64
  %35 = icmp ult i64 %34, 4
  br i1 %35, label %36, label %38

36:                                               ; preds = %13
  %37 = call i32 (ptr, ...) @error(ptr noundef @.str.15)
  br label %38

38:                                               ; preds = %36, %13
  store i32 0, ptr %8, align 4
  br label %39

39:                                               ; preds = %38, %11
  call void @llvm.lifetime.end.p0(i64 4, ptr %7) #8
  call void @llvm.lifetime.end.p0(i64 4, ptr %6) #8
  call void @llvm.lifetime.end.p0(i64 4, ptr %5) #8
  %40 = load i32, ptr %8, align 4
  switch i32 %40, label %42 [
    i32 0, label %41
    i32 1, label %41
  ]

41:                                               ; preds = %39, %39
  ret void

42:                                               ; preds = %39
  unreachable
}

; Function Attrs: nounwind uwtable
define dso_local i32 @set_winsize(i32 noundef %0, ptr noundef %1) #0 {
  %3 = alloca i32, align 4
  %4 = alloca i32, align 4
  %5 = alloca ptr, align 8
  %6 = alloca %struct.winsize, align 2
  %7 = alloca i32, align 4
  store i32 %0, ptr %4, align 4
  store ptr %1, ptr %5, align 8
  call void @llvm.lifetime.start.p0(i64 8, ptr %6) #8
  %8 = load i32, ptr %4, align 4
  %9 = call i32 (i32, i64, ...) @ioctl(i32 noundef %8, i64 noundef 21523, ptr noundef %6) #8
  %10 = icmp ne i32 %9, 0
  br i1 %10, label %11, label %13

11:                                               ; preds = %2
  %12 = call i32 (ptr, ...) @error(ptr noundef @.str)
  store i32 -1, ptr %3, align 4
  store i32 1, ptr %7, align 4
  br label %40

13:                                               ; preds = %2
  %14 = getelementptr inbounds nuw %struct.winsize, ptr %6, i32 0, i32 0
  %15 = load i16, ptr %14, align 2
  %16 = load ptr, ptr %5, align 8
  %17 = getelementptr inbounds nuw %struct.srun_job, ptr %16, i32 0, i32 32
  store i16 %15, ptr %17, align 8
  %18 = getelementptr inbounds nuw %struct.winsize, ptr %6, i32 0, i32 1
  %19 = load i16, ptr %18, align 2
  %20 = load ptr, ptr %5, align 8
  %21 = getelementptr inbounds nuw %struct.srun_job, ptr %20, i32 0, i32 31
  store i16 %19, ptr %21, align 2
  br label %22

22:                                               ; preds = %13
  br label %23

23:                                               ; preds = %22
  %24 = call i32 @get_log_level()
  %25 = icmp sge i32 %24, 6
  br i1 %25, label %26, label %35

26:                                               ; preds = %23
  %27 = load ptr, ptr %5, align 8
  %28 = getelementptr inbounds nuw %struct.srun_job, ptr %27, i32 0, i32 32
  %29 = load i16, ptr %28, align 8
  %30 = zext i16 %29 to i32
  %31 = load ptr, ptr %5, align 8
  %32 = getelementptr inbounds nuw %struct.srun_job, ptr %31, i32 0, i32 31
  %33 = load i16, ptr %32, align 2
  %34 = zext i16 %33 to i32
  call void (i32, ptr, ...) @log_var(i32 noundef 6, ptr noundef @.str.1, i32 noundef %30, i32 noundef %34)
  br label %35

35:                                               ; preds = %26, %23
  br label %36

36:                                               ; preds = %35
  br label %37

37:                                               ; preds = %36
  br label %38

38:                                               ; preds = %37
  br label %39

39:                                               ; preds = %38
  store i32 0, ptr %3, align 4
  store i32 1, ptr %7, align 4
  br label %40

40:                                               ; preds = %39, %11
  call void @llvm.lifetime.end.p0(i64 8, ptr %6) #8
  %41 = load i32, ptr %3, align 4
  ret i32 %41
}

; Function Attrs: nounwind uwtable
define internal ptr @_pty_thread(ptr noundef %0) #0 {
  %2 = alloca ptr, align 8
  %3 = alloca ptr, align 8
  %4 = alloca i32, align 4
  %5 = alloca ptr, align 8
  %6 = alloca %struct.sockaddr_storage, align 8
  %7 = alloca i32, align 4
  store ptr %0, ptr %3, align 8
  call void @llvm.lifetime.start.p0(i64 4, ptr %4) #8
  store i32 -1, ptr %4, align 4
  call void @llvm.lifetime.start.p0(i64 8, ptr %5) #8
  %8 = load ptr, ptr %3, align 8
  store ptr %8, ptr %5, align 8
  call void @llvm.lifetime.start.p0(i64 128, ptr %6) #8
  %9 = call i32 @xsignal_unblock(ptr noundef @pty_sigarray)
  %10 = call ptr @xsignal(i32 noundef 28, ptr noundef @_handle_sigwinch)
  %11 = load ptr, ptr %5, align 8
  %12 = getelementptr inbounds nuw %struct.srun_job, ptr %11, i32 0, i32 29
  %13 = load i32, ptr %12, align 8
  %14 = call i32 @slurm_accept_msg_conn(i32 noundef %13, ptr noundef %6)
  store i32 %14, ptr %4, align 4
  %15 = icmp slt i32 %14, 0
  br i1 %15, label %16, label %18

16:                                               ; preds = %1
  %17 = call i32 (ptr, ...) @error(ptr noundef @.str.11)
  store ptr null, ptr %2, align 8
  store i32 1, ptr %7, align 4
  br label %65

18:                                               ; preds = %1
  %19 = load i32, ptr %4, align 4
  call void @net_set_keep_alive(i32 noundef %19)
  br label %20

20:                                               ; preds = %61, %52, %18
  %21 = load ptr, ptr %5, align 8
  %22 = getelementptr inbounds nuw %struct.srun_job, ptr %21, i32 0, i32 19
  %23 = load i32, ptr %22, align 4
  %24 = icmp ule i32 %23, 3
  br i1 %24, label %25, label %62

25:                                               ; preds = %20
  br label %26

26:                                               ; preds = %25
  br label %27

27:                                               ; preds = %26
  %28 = call i32 @get_log_level()
  %29 = icmp sge i32 %28, 6
  br i1 %29, label %30, label %31

30:                                               ; preds = %27
  call void (i32, ptr, ...) @log_var(i32 noundef 6, ptr noundef @.str.12)
  br label %31

31:                                               ; preds = %30, %27
  br label %32

32:                                               ; preds = %31
  br label %33

33:                                               ; preds = %32
  br label %34

34:                                               ; preds = %33
  br label %35

35:                                               ; preds = %34
  %36 = call i32 @poll(ptr noundef null, i64 noundef 0, i32 noundef -1)
  %37 = icmp slt i32 %36, 1
  br i1 %37, label %38, label %53

38:                                               ; preds = %35
  %39 = call ptr @__errno_location() #9
  %40 = load i32, ptr %39, align 4
  %41 = icmp ne i32 %40, 4
  br i1 %41, label %42, label %53

42:                                               ; preds = %38
  br label %43

43:                                               ; preds = %42
  br label %44

44:                                               ; preds = %43
  %45 = call i32 @get_log_level()
  %46 = icmp sge i32 %45, 5
  br i1 %46, label %47, label %48

47:                                               ; preds = %44
  call void (i32, ptr, ...) @log_var(i32 noundef 5, ptr noundef @.str.13, ptr noundef @__func__._pty_thread)
  br label %48

48:                                               ; preds = %47, %44
  br label %49

49:                                               ; preds = %48
  br label %50

50:                                               ; preds = %49
  br label %51

51:                                               ; preds = %50
  br label %52

52:                                               ; preds = %51
  br label %20, !llvm.loop !8

53:                                               ; preds = %38, %35
  %54 = load i32, ptr @winch, align 4
  %55 = icmp ne i32 %54, 0
  br i1 %55, label %56, label %61

56:                                               ; preds = %53
  %57 = load ptr, ptr %5, align 8
  %58 = call i32 @set_winsize(i32 noundef 1, ptr noundef %57)
  %59 = load i32, ptr %4, align 4
  %60 = load ptr, ptr %5, align 8
  call void @_notify_winsize_change(i32 noundef %59, ptr noundef %60)
  br label %61

61:                                               ; preds = %56, %53
  store i32 0, ptr @winch, align 4
  br label %20, !llvm.loop !8

62:                                               ; preds = %20
  %63 = load i32, ptr %4, align 4
  %64 = call i32 @close(i32 noundef %63)
  store ptr null, ptr %2, align 8
  store i32 1, ptr %7, align 4
  br label %65

65:                                               ; preds = %62, %16
  call void @llvm.lifetime.end.p0(i64 128, ptr %6) #8
  call void @llvm.lifetime.end.p0(i64 8, ptr %5) #8
  call void @llvm.lifetime.end.p0(i64 4, ptr %4) #8
  %66 = load ptr, ptr %2, align 8
  ret ptr %66
}