; Function Attrs: nounwind uwtable
define internal noalias noundef ptr @_pty_thread(ptr noundef captures(none) %0) #0 {
  %2 = alloca [4 x i8], align 2
  %3 = alloca %struct.winsize, align 2
  %4 = alloca %struct.sockaddr_storage, align 8
  call void @llvm.lifetime.start.p0(i64 128, ptr nonnull %4) #7
  %5 = tail call i32 @xsignal_unblock(ptr noundef nonnull @pty_sigarray) #7
  %6 = tail call ptr @xsignal(i32 noundef 28, ptr noundef nonnull @_handle_sigwinch) #7
  %7 = getelementptr inbounds nuw i8, ptr %0, i64 256
  %8 = load i32, ptr %7, align 8
  %9 = call i32 @slurm_accept_msg_conn(i32 noundef %8, ptr noundef nonnull %4) #7
  %10 = icmp slt i32 %9, 0
  br i1 %10, label %11, label %13

11:                                               ; preds = %1
  %12 = call i32 (ptr, ...) @error(ptr noundef nonnull @.str.11) #7
  br label %59

13:                                               ; preds = %1
  call void @net_set_keep_alive(i32 noundef %9) #7
  %14 = getelementptr inbounds nuw i8, ptr %0, i64 108
  %15 = load i32, ptr %14, align 4
  %16 = icmp ult i32 %15, 4
  br i1 %16, label %.lr.ph, label %._crit_edge

.lr.ph:                                           ; preds = %13
  %17 = getelementptr i8, ptr %0, i64 264
  %18 = getelementptr inbounds nuw i8, ptr %3, i64 2
  %19 = getelementptr i8, ptr %0, i64 262
  %20 = getelementptr inbounds nuw i8, ptr %2, i64 2
  br label %21

21:                                               ; preds = %.lr.ph, %.backedge
  %22 = call i32 @get_log_level() #7
  %23 = icmp sgt i32 %22, 5
  br i1 %23, label %24, label %25

24:                                               ; preds = %21
  call void (i32, ptr, ...) @log_var(i32 noundef 6, ptr noundef nonnull @.str.12) #7
  br label %25

25:                                               ; preds = %24, %21
  %26 = call i32 @poll(ptr noundef null, i64 noundef 0, i32 noundef -1) #7
  %27 = icmp slt i32 %26, 1
  br i1 %27, label %28, label %37

28:                                               ; preds = %25
  %29 = tail call ptr @__errno_location() #8
  %30 = load i32, ptr %29, align 4
  %.not = icmp eq i32 %30, 4
  br i1 %.not, label %37, label %31

31:                                               ; preds = %28
  %32 = call i32 @get_log_level() #7
  %33 = icmp sgt i32 %32, 4
  br i1 %33, label %34, label %.backedge

34:                                               ; preds = %31
  call void (i32, ptr, ...) @log_var(i32 noundef 5, ptr noundef nonnull @.str.13, ptr noundef nonnull @__func__._pty_thread) #7
  br label %.backedge

.backedge:                                        ; preds = %31, %34, %57
  %35 = load i32, ptr %14, align 4
  %36 = icmp ult i32 %35, 4
  br i1 %36, label %21, label %._crit_edge, !llvm.loop !8

37:                                               ; preds = %28, %25
  %.b = load i1, ptr @winch, align 4
  br i1 %.b, label %38, label %57

38:                                               ; preds = %37
  call void @llvm.lifetime.start.p0(i64 8, ptr nonnull %3) #7
  %39 = call i32 (i32, i64, ...) @ioctl(i32 noundef 1, i64 noundef 21523, ptr noundef nonnull %3) #7
  %.not.i = icmp eq i32 %39, 0
  br i1 %.not.i, label %42, label %40

40:                                               ; preds = %38
  %41 = call i32 (ptr, ...) @error(ptr noundef nonnull @.str) #7
  br label %set_winsize.exit

42:                                               ; preds = %38
  %43 = load i16, ptr %3, align 2
  store i16 %43, ptr %17, align 8
  %44 = load i16, ptr %18, align 2
  store i16 %44, ptr %19, align 2
  %45 = call i32 @get_log_level() #7
  %46 = icmp sgt i32 %45, 5
  br i1 %46, label %47, label %set_winsize.exit

47:                                               ; preds = %42
  %48 = load i16, ptr %17, align 8
  %49 = zext i16 %48 to i32
  %50 = load i16, ptr %19, align 2
  %51 = zext i16 %50 to i32
  call void (i32, ptr, ...) @log_var(i32 noundef 6, ptr noundef nonnull @.str.1, i32 noundef %49, i32 noundef %51) #7
  br label %set_winsize.exit

set_winsize.exit:                                 ; preds = %40, %42, %47
  call void @llvm.lifetime.end.p0(i64 8, ptr nonnull %3) #7
  %.val = load i16, ptr %19, align 2
  %.val8 = load i16, ptr %17, align 8
  call void @llvm.lifetime.start.p0(i64 4, ptr nonnull %2) #7
  %rev.i.i = call noundef i16 @llvm.bswap.i16(i16 %.val)
  %rev.i4.i = call noundef i16 @llvm.bswap.i16(i16 %.val8)
  store i16 %rev.i.i, ptr %2, align 2
  store i16 %rev.i4.i, ptr %20, align 2
  %52 = call i64 @slurm_write_stream(i32 noundef range(i32 0, -2147483648) %9, ptr noundef nonnull %2, i64 noundef 4) #7
  %53 = and i64 %52, 4294967292
  %54 = icmp eq i64 %53, 0
  br i1 %54, label %55, label %_notify_winsize_change.exit

55:                                               ; preds = %set_winsize.exit
  %56 = call i32 (ptr, ...) @error(ptr noundef nonnull @.str.15) #7
  br label %_notify_winsize_change.exit

_notify_winsize_change.exit:                      ; preds = %set_winsize.exit, %55
  call void @llvm.lifetime.end.p0(i64 4, ptr nonnull %2) #7
  br label %57

57:                                               ; preds = %_notify_winsize_change.exit, %37
  store i1 false, ptr @winch, align 4
  br label %.backedge

._crit_edge:                                      ; preds = %.backedge, %13
  %58 = call i32 @close(i32 noundef %9) #7
  br label %59

59:                                               ; preds = %._crit_edge, %11
  call void @llvm.lifetime.end.p0(i64 128, ptr nonnull %4) #7
  ret ptr null
}